target datalayout = "e-m:e-p270:32:32-p271:32:32-p272:64:64-i64:64-i128:128-f80:128-n8:16:32:64-S128"
target triple = "x86_64-pc-linux-gnu"

%struct._zval_struct = type { %union._zend_value, %union.anon, %union.anon.2 }
%union._zend_value = type { i64 }
%union.anon = type { i32 }
%union.anon.2 = type { i32 }
%struct._zend_refcounted_h = type { i32, %union.anon.3 }
%union.anon.3 = type { i32 }
%struct.anon.7 = type { i8, [3 x i8], i32, ptr, ptr, ptr, i32, i32, ptr, ptr, ptr, ptr, i32 }
%struct._zend_execute_data = type { ptr, ptr, ptr, ptr, %struct._zval_struct, ptr, ptr, ptr, ptr }
%struct._zend_object = type { %struct._zend_refcounted_h, i32, ptr, ptr, ptr, [1 x %struct._zval_struct] }

; Function Attrs: nounwind uwtable
define ptr @zend_get_called_scope(ptr noundef %0) #0 {
  %2 = alloca ptr, align 8
  %3 = alloca ptr, align 8
  %4 = alloca ptr, align 8
  store ptr %0, ptr %4, align 8
  br label %5

5:                                                ; preds = %57, %1
  %6 = load ptr, ptr %4, align 8
  %7 = icmp ne ptr %6, null
  br i1 %7, label %8, label %61

8:                                                ; preds = %5
  %9 = load ptr, ptr %4, align 8
  %10 = getelementptr inbounds %struct._zend_execute_data, ptr %9, i32 0, i32 4
  store ptr %10, ptr %2, align 8
  %11 = load ptr, ptr %2, align 8
  %12 = getelementptr inbounds %struct._zval_struct, ptr %11, i32 0, i32 1
  %13 = load i8, ptr %12, align 8
  %14 = zext i8 %13 to i32
  %15 = icmp eq i32 %14, 8
  br i1 %15, label %16, label %23

16:                                               ; preds = %8
  %17 = load ptr, ptr %4, align 8
  %18 = getelementptr inbounds %struct._zend_execute_data, ptr %17, i32 0, i32 4
  %19 = getelementptr inbounds %struct._zval_struct, ptr %18, i32 0, i32 0
  %20 = load ptr, ptr %19, align 8
  %21 = getelementptr inbounds %struct._zend_object, ptr %20, i32 0, i32 2
  %22 = load ptr, ptr %21, align 8
  store ptr %22, ptr %3, align 8
  br label %62

23:                                               ; preds = %8
  %24 = load ptr, ptr %4, align 8
  %25 = getelementptr inbounds %struct._zend_execute_data, ptr %24, i32 0, i32 4
  %26 = getelementptr inbounds %struct._zval_struct, ptr %25, i32 0, i32 0
  %27 = load ptr, ptr %26, align 8
  %28 = icmp ne ptr %27, null
  br i1 %28, label %29, label %34

29:                                               ; preds = %23
  %30 = load ptr, ptr %4, align 8
  %31 = getelementptr inbounds %struct._zend_execute_data, ptr %30, i32 0, i32 4
  %32 = getelementptr inbounds %struct._zval_struct, ptr %31, i32 0, i32 0
  %33 = load ptr, ptr %32, align 8
  store ptr %33, ptr %3, align 8
  br label %62

34:                                               ; preds = %23
  %35 = load ptr, ptr %4, align 8
  %36 = getelementptr inbounds %struct._zend_execute_data, ptr %35, i32 0, i32 3
  %37 = load ptr, ptr %36, align 8
  %38 = icmp ne ptr %37, null
  br i1 %38, label %39, label %55

39:                                               ; preds = %34
  %40 = load ptr, ptr %4, align 8
  %41 = getelementptr inbounds %struct._zend_execute_data, ptr %40, i32 0, i32 3
  %42 = load ptr, ptr %41, align 8
  %43 = load i8, ptr %42, align 8
  %44 = zext i8 %43 to i32
  %45 = icmp ne i32 %44, 1
  br i1 %45, label %53, label %46

46:                                               ; preds = %39
  %47 = load ptr, ptr %4, align 8
  %48 = getelementptr inbounds %struct._zend_execute_data, ptr %47, i32 0, i32 3
  %49 = load ptr, ptr %48, align 8
  %50 = getelementptr inbounds %struct.anon.7, ptr %49, i32 0, i32 4
  %51 = load ptr, ptr %50, align 8
  %52 = icmp ne ptr %51, null
  br i1 %52, label %53, label %54

53:                                               ; preds = %46, %39
  store ptr null, ptr %3, align 8
  br label %62

54:                                               ; preds = %46
  br label %55

55:                                               ; preds = %54, %34
  br label %56

56:                                               ; preds = %55
  br label %57

57:                                               ; preds = %56
  %58 = load ptr, ptr %4, align 8
  %59 = getelementptr inbounds %struct._zend_execute_data, ptr %58, i32 0, i32 5
  %60 = load ptr, ptr %59, align 8
  store ptr %60, ptr %4, align 8
  br label %5

61:                                               ; preds = %5
  store ptr null, ptr %3, align 8
  br label %62

62:                                               ; preds = %61, %53, %29, %16
  %63 = load ptr, ptr %3, align 8
  ret ptr %63
}