; Function Attrs: nofree norecurse nosync nounwind memory(read, inaccessiblemem: none) uwtable
define ptr @zend_get_called_scope(ptr noundef readonly %0) local_unnamed_addr #8 {
  %.not18 = icmp eq ptr %0, null
  br i1 %.not18, label %.loopexit, label %.lr.ph

.lr.ph:                                           ; preds = %1, %19
  %.019 = phi ptr [ %21, %19 ], [ %0, %1 ]
  %2 = getelementptr inbounds i8, ptr %.019, i64 32
  %3 = getelementptr inbounds i8, ptr %.019, i64 40
  %4 = load i8, ptr %3, align 8
  %5 = icmp eq i8 %4, 8
  %6 = load ptr, ptr %2, align 8
  br i1 %5, label %7, label %10

7:                                                ; preds = %.lr.ph
  %8 = getelementptr inbounds i8, ptr %6, i64 16
  %9 = load ptr, ptr %8, align 8
  br label %.loopexit

10:                                               ; preds = %.lr.ph
  %.not14 = icmp eq ptr %6, null
  br i1 %.not14, label %11, label %.loopexit

11:                                               ; preds = %10
  %12 = getelementptr inbounds i8, ptr %.019, i64 24
  %13 = load ptr, ptr %12, align 8
  %.not15 = icmp eq ptr %13, null
  br i1 %.not15, label %19, label %14

14:                                               ; preds = %11
  %15 = load i8, ptr %13, align 8
  %.not16 = icmp eq i8 %15, 1
  br i1 %.not16, label %16, label %.loopexit

16:                                               ; preds = %14
  %17 = getelementptr inbounds i8, ptr %13, i64 16
  %18 = load ptr, ptr %17, align 8
  %.not17 = icmp eq ptr %18, null
  br i1 %.not17, label %19, label %.loopexit

19:                                               ; preds = %16, %11
  %20 = getelementptr inbounds i8, ptr %.019, i64 48
  %21 = load ptr, ptr %20, align 8
  %.not = icmp eq ptr %21, null
  br i1 %.not, label %.loopexit, label %.lr.ph

.loopexit:                                        ; preds = %10, %16, %14, %19, %1, %7
  %.011 = phi ptr [ %9, %7 ], [ null, %1 ], [ %6, %10 ], [ null, %16 ], [ null, %14 ], [ null, %19 ]
  ret ptr %.011
}